target datalayout = "e-m:e-p270:32:32-p271:32:32-p272:64:64-i64:64-i128:128-f80:128-n8:16:32:64-S128"
target triple = "x86_64-pc-linux-gnu"

%struct.Vmem = type { ptr, i64, i64 }
%struct.VHeader_ = type { i32, i32, [0 x i8] }
%struct.Decl_ = type { ptr, ptr, %union.SourceSpan, i64, %union.anon, i32, %union.anon.0, i64, ptr, ptr, ptr, %union.anon.1 }
%union.SourceSpan = type { i64 }
%union.anon = type { ptr }
%union.anon.0 = type { i16 }
%union.anon.1 = type { %struct.FuncDecl }
%struct.FuncDecl = type { i32, [4 x i8], %struct.Signature_, i32, i32, %union.anon.8 }
%struct.Signature_ = type <{ %struct.CalleeAttributes, i16, i8, i32, i32, [4 x i8], ptr }>
%struct.CalleeAttributes = type { i8 }
%union.anon.8 = type { %struct.anon.9 }
%struct.anon.9 = type { i16, %union.anon.10 }
%union.anon.10 = type { ptr }
%struct.Type_ = type { i32, ptr, ptr, ptr, %union.anon.86, ptr, ptr, %union.anon.88 }
%union.anon.86 = type { ptr }
%union.anon.88 = type { %struct.TypeFunction }
%struct.TypeFunction = type { ptr, ptr, ptr }
%struct.TypeInfo_ = type { i16, ptr, %union.SourceSpan, %union.anon.56 }
%union.anon.56 = type { %struct.anon.57 }
%struct.anon.57 = type { ptr, ptr }

@type_anyfault = external global ptr, align 8
@.str.33 = private unnamed_addr constant [8 x i8] c"void);\0A\00", align 1
@.str.34 = private unnamed_addr constant [12 x i8] c" return_ref\00", align 1
@.str.35 = private unnamed_addr constant [3 x i8] c", \00", align 1
@.str.36 = private unnamed_addr constant [4 x i8] c" %s\00", align 1
@.str.37 = private unnamed_addr constant [4 x i8] c");\0A\00", align 1
@type_info_arena = external global %struct.Vmem, align 8
@.str.80 = private unnamed_addr constant [8 x i8] c"extern \00", align 1
@.str.82 = private unnamed_addr constant [5 x i8] c" %s(\00", align 1

; Function Attrs: nounwind uwtable
define internal ptr @type_infoptr(i32 noundef %0) #0 {
  %2 = alloca i32, align 4
  store i32 %0, ptr %2, align 4
  %3 = load ptr, ptr @type_info_arena, align 8
  %4 = load i32, ptr %2, align 4
  %5 = zext i32 %4 to i64
  %6 = getelementptr inbounds %struct.TypeInfo_, ptr %3, i64 %5
  ret ptr %6
}

; Function Attrs: nounwind uwtable
define internal void @header_gen_function(ptr noundef %0, ptr noundef %1, ptr noundef %2, ptr noundef %3) #0 {
  %5 = alloca i32, align 4
  %6 = alloca ptr, align 8
  %7 = alloca i1, align 1
  %8 = alloca ptr, align 8
  %9 = alloca i32, align 4
  %10 = alloca i32, align 4
  %11 = alloca ptr, align 8
  %12 = alloca ptr, align 8
  %13 = alloca i32, align 4
  %14 = alloca ptr, align 8
  %15 = alloca ptr, align 8
  %16 = alloca ptr, align 8
  %17 = alloca ptr, align 8
  %18 = alloca ptr, align 8
  %19 = alloca ptr, align 8
  %20 = alloca ptr, align 8
  %21 = alloca ptr, align 8
  %22 = alloca ptr, align 8
  %23 = alloca ptr, align 8
  %24 = alloca i32, align 4
  %25 = alloca i32, align 4
  %26 = alloca ptr, align 8
  store ptr %0, ptr %16, align 8
  store ptr %1, ptr %17, align 8
  store ptr %2, ptr %18, align 8
  store ptr %3, ptr %19, align 8
  %27 = load ptr, ptr %19, align 8
  %28 = getelementptr inbounds %struct.Decl_, ptr %27, i32 0, i32 3
  %29 = load i64, ptr %28, align 8
  %30 = lshr i64 %29, 28
  %31 = and i64 %30, 1
  %32 = trunc i64 %31 to i1
  br i1 %32, label %34, label %33

33:                                               ; preds = %4
  br label %183

34:                                               ; preds = %4
  %35 = load ptr, ptr %19, align 8
  %36 = getelementptr inbounds %struct.Decl_, ptr %35, i32 0, i32 11
  %37 = getelementptr inbounds %struct.FuncDecl, ptr %36, i32 0, i32 2
  store ptr %37, ptr %20, align 8
  %38 = load ptr, ptr %16, align 8
  %39 = call i32 (ptr, ptr, ...) @fprintf(ptr noundef %38, ptr noundef @.str.80) #5
  %40 = load ptr, ptr %20, align 8
  %41 = getelementptr inbounds %struct.Signature_, ptr %40, i32 0, i32 4
  %42 = load i32, ptr %41, align 8
  store i32 %42, ptr %5, align 4
  %43 = load i32, ptr %5, align 4
  %44 = icmp ne i32 %43, 0
  br i1 %44, label %45, label %50

45:                                               ; preds = %34
  %46 = load i32, ptr %5, align 4
  %47 = call ptr @type_infoptr(i32 noundef %46)
  %48 = getelementptr inbounds %struct.TypeInfo_, ptr %47, i32 0, i32 1
  %49 = load ptr, ptr %48, align 8
  br label %51

50:                                               ; preds = %34
  br label %51

51:                                               ; preds = %50, %45
  %52 = phi ptr [ %49, %45 ], [ null, %50 ]
  store ptr %52, ptr %21, align 8
  store ptr null, ptr %22, align 8
  %53 = load ptr, ptr %21, align 8
  store ptr %53, ptr %8, align 8
  %54 = load ptr, ptr %8, align 8
  %55 = icmp ne ptr %54, null
  br i1 %55, label %57, label %56

56:                                               ; preds = %51
  store i1 false, ptr %7, align 1
  br label %70

57:                                               ; preds = %51
  %58 = load ptr, ptr %8, align 8
  %59 = load i32, ptr %58, align 8
  store i32 %59, ptr %9, align 4
  %60 = load i32, ptr %9, align 4
  %61 = icmp eq i32 %60, 31
  br i1 %61, label %62, label %67

62:                                               ; preds = %57
  %63 = load ptr, ptr %8, align 8
  %64 = getelementptr inbounds %struct.Type_, ptr %63, i32 0, i32 1
  %65 = load ptr, ptr %64, align 8
  %66 = load i32, ptr %65, align 8
  store i32 %66, ptr %9, align 4
  br label %67

67:                                               ; preds = %62, %57
  %68 = load i32, ptr %9, align 4
  %69 = icmp eq i32 %68, 40
  store i1 %69, ptr %7, align 1
  br label %70

70:                                               ; preds = %67, %56
  %71 = load i1, ptr %7, align 1
  br i1 %71, label %72, label %80

72:                                               ; preds = %70
  %73 = load ptr, ptr %21, align 8
  %74 = getelementptr inbounds %struct.Type_, ptr %73, i32 0, i32 7
  %75 = load ptr, ptr %74, align 8
  store ptr %75, ptr %22, align 8
  %76 = load ptr, ptr %17, align 8
  %77 = load ptr, ptr %18, align 8
  %78 = load ptr, ptr %22, align 8
  call void @header_gen_maybe_generate_type(ptr noundef %76, ptr noundef %77, ptr noundef %78)
  %79 = load ptr, ptr @type_anyfault, align 8
  store ptr %79, ptr %21, align 8
  br label %80

80:                                               ; preds = %72, %70
  %81 = load ptr, ptr %17, align 8
  %82 = load ptr, ptr %18, align 8
  %83 = load ptr, ptr %21, align 8
  call void @header_gen_maybe_generate_type(ptr noundef %81, ptr noundef %82, ptr noundef %83)
  %84 = load ptr, ptr %16, align 8
  %85 = load ptr, ptr %21, align 8
  call void @header_print_type(ptr noundef %84, ptr noundef %85)
  %86 = load ptr, ptr %16, align 8
  %87 = load ptr, ptr %19, align 8
  store ptr %87, ptr %6, align 8
  %88 = load ptr, ptr %6, align 8
  %89 = getelementptr inbounds %struct.Decl_, ptr %88, i32 0, i32 1
  %90 = load ptr, ptr %89, align 8
  %91 = call i32 (ptr, ptr, ...) @fprintf(ptr noundef %86, ptr noundef @.str.82, ptr noundef %90) #5
  %92 = load ptr, ptr %20, align 8
  %93 = getelementptr inbounds %struct.Signature_, ptr %92, i32 0, i32 6
  %94 = load ptr, ptr %93, align 8
  store ptr %94, ptr %11, align 8
  %95 = load ptr, ptr %11, align 8
  %96 = icmp ne ptr %95, null
  br i1 %96, label %98, label %97

97:                                               ; preds = %80
  store i32 0, ptr %10, align 4
  br label %103

98:                                               ; preds = %80
  %99 = load ptr, ptr %11, align 8
  store ptr %99, ptr %12, align 8
  %100 = load ptr, ptr %12, align 8
  %101 = getelementptr inbounds %struct.VHeader_, ptr %100, i64 -1
  %102 = load i32, ptr %101, align 4
  store i32 %102, ptr %10, align 4
  br label %103

103:                                              ; preds = %98, %97
  %104 = load i32, ptr %10, align 4
  %105 = icmp ne i32 %104, 0
  br i1 %105, label %112, label %106

106:                                              ; preds = %103
  %107 = load ptr, ptr %22, align 8
  %108 = icmp ne ptr %107, null
  br i1 %108, label %112, label %109

109:                                              ; preds = %106
  %110 = load ptr, ptr %16, align 8
  %111 = call i32 (ptr, ptr, ...) @fprintf(ptr noundef %110, ptr noundef @.str.33) #5
  br label %183

112:                                              ; preds = %106, %103
  %113 = load ptr, ptr %22, align 8
  %114 = icmp ne ptr %113, null
  br i1 %114, label %115, label %121

115:                                              ; preds = %112
  %116 = load ptr, ptr %16, align 8
  %117 = load ptr, ptr %22, align 8
  %118 = call ptr @type_get_ptr(ptr noundef %117)
  call void @header_print_type(ptr noundef %116, ptr noundef %118)
  %119 = load ptr, ptr %16, align 8
  %120 = call i32 (ptr, ptr, ...) @fprintf(ptr noundef %119, ptr noundef @.str.34) #5
  br label %121

121:                                              ; preds = %115, %112
  %122 = load ptr, ptr %20, align 8
  %123 = getelementptr inbounds %struct.Signature_, ptr %122, i32 0, i32 6
  %124 = load ptr, ptr %123, align 8
  store ptr %124, ptr %23, align 8
  %125 = load ptr, ptr %23, align 8
  store ptr %125, ptr %14, align 8
  %126 = load ptr, ptr %14, align 8
  %127 = icmp ne ptr %126, null
  br i1 %127, label %129, label %128

128:                                              ; preds = %121
  store i32 0, ptr %13, align 4
  br label %134

129:                                              ; preds = %121
  %130 = load ptr, ptr %14, align 8
  store ptr %130, ptr %15, align 8
  %131 = load ptr, ptr %15, align 8
  %132 = getelementptr inbounds %struct.VHeader_, ptr %131, i64 -1
  %133 = load i32, ptr %132, align 4
  store i32 %133, ptr %13, align 4
  br label %134

134:                                              ; preds = %129, %128
  %135 = load i32, ptr %13, align 4
  store i32 %135, ptr %24, align 4
  store i32 0, ptr %25, align 4
  br label %136

136:                                              ; preds = %175, %134
  %137 = load i32, ptr %25, align 4
  %138 = load i32, ptr %24, align 4
  %139 = icmp ult i32 %137, %138
  br i1 %139, label %140, label %178

140:                                              ; preds = %136
  %141 = load ptr, ptr %23, align 8
  %142 = load i32, ptr %25, align 4
  %143 = zext i32 %142 to i64
  %144 = getelementptr inbounds ptr, ptr %141, i64 %143
  %145 = load ptr, ptr %144, align 8
  store ptr %145, ptr %26, align 8
  %146 = load i32, ptr %25, align 4
  %147 = icmp ne i32 %146, 0
  br i1 %147, label %151, label %148

148:                                              ; preds = %140
  %149 = load ptr, ptr %22, align 8
  %150 = icmp ne ptr %149, null
  br i1 %150, label %151, label %154

151:                                              ; preds = %148, %140
  %152 = load ptr, ptr %16, align 8
  %153 = call i32 (ptr, ptr, ...) @fprintf(ptr noundef %152, ptr noundef @.str.35) #5
  br label %154

154:                                              ; preds = %151, %148
  %155 = load ptr, ptr %16, align 8
  %156 = load ptr, ptr %26, align 8
  %157 = getelementptr inbounds %struct.Decl_, ptr %156, i32 0, i32 10
  %158 = load ptr, ptr %157, align 8
  call void @header_print_type(ptr noundef %155, ptr noundef %158)
  %159 = load ptr, ptr %17, align 8
  %160 = load ptr, ptr %18, align 8
  %161 = load ptr, ptr %26, align 8
  %162 = getelementptr inbounds %struct.Decl_, ptr %161, i32 0, i32 10
  %163 = load ptr, ptr %162, align 8
  call void @header_gen_maybe_generate_type(ptr noundef %159, ptr noundef %160, ptr noundef %163)
  %164 = load ptr, ptr %26, align 8
  %165 = getelementptr inbounds %struct.Decl_, ptr %164, i32 0, i32 0
  %166 = load ptr, ptr %165, align 8
  %167 = icmp ne ptr %166, null
  br i1 %167, label %168, label %174

168:                                              ; preds = %154
  %169 = load ptr, ptr %16, align 8
  %170 = load ptr, ptr %26, align 8
  %171 = getelementptr inbounds %struct.Decl_, ptr %170, i32 0, i32 0
  %172 = load ptr, ptr %171, align 8
  %173 = call i32 (ptr, ptr, ...) @fprintf(ptr noundef %169, ptr noundef @.str.36, ptr noundef %172) #5
  br label %174

174:                                              ; preds = %168, %154
  br label %175

175:                                              ; preds = %174
  %176 = load i32, ptr %25, align 4
  %177 = add i32 %176, 1
  store i32 %177, ptr %25, align 4
  br label %136, !llvm.loop !28

178:                                              ; preds = %136
  br label %179

179:                                              ; preds = %178
  br label %180

180:                                              ; preds = %179
  %181 = load ptr, ptr %16, align 8
  %182 = call i32 (ptr, ptr, ...) @fprintf(ptr noundef %181, ptr noundef @.str.37) #5
  br label %183

183:                                              ; preds = %180, %109, %33
  ret void
}