; Function Attrs: nounwind uwtable
define internal fastcc void @header_gen_function(ptr noundef %0, ptr noundef %1, ptr noundef nonnull %2, ptr noundef readonly captures(none) %3) unnamed_addr #0 {
  %5 = getelementptr inbounds nuw i8, ptr %3, i64 24
  %6 = load i64, ptr %5, align 8
  %7 = and i64 %6, 268435456
  %.not = icmp eq i64 %7, 0
  br i1 %.not, label %75, label %8

8:                                                ; preds = %4
  %9 = tail call i64 @fwrite(ptr nonnull @.str.80, i64 7, i64 1, ptr %0)
  %10 = getelementptr inbounds nuw i8, ptr %3, i64 96
  %11 = load i32, ptr %10, align 8
  %.not73 = icmp eq i32 %11, 0
  br i1 %.not73, label %.critedge, label %12

12:                                               ; preds = %8
  %13 = load ptr, ptr @type_info_arena, align 8
  %14 = zext i32 %11 to i64
  %15 = getelementptr inbounds nuw %struct.TypeInfo_, ptr %13, i64 %14, i32 1
  %16 = load ptr, ptr %15, align 8
  %.not74 = icmp eq ptr %16, null
  br i1 %.not74, label %.critedge, label %17

17:                                               ; preds = %12
  %18 = load i32, ptr %16, align 8
  %19 = icmp eq i32 %18, 31
  br i1 %19, label %20, label %24

20:                                               ; preds = %17
  %21 = getelementptr inbounds nuw i8, ptr %16, i64 8
  %22 = load ptr, ptr %21, align 8
  %23 = load i32, ptr %22, align 8
  br label %24

24:                                               ; preds = %20, %17
  %.062 = phi i32 [ %23, %20 ], [ %18, %17 ]
  %25 = icmp eq i32 %.062, 40
  br i1 %25, label %26, label %.critedge

26:                                               ; preds = %24
  %27 = getelementptr inbounds nuw i8, ptr %16, i64 56
  %28 = load ptr, ptr %27, align 8
  tail call fastcc void @header_gen_maybe_generate_type(ptr noundef %1, ptr noundef nonnull %2, ptr noundef %28)
  %29 = load ptr, ptr @type_anyfault, align 8
  br label %.critedge

.critedge:                                        ; preds = %8, %12, %26, %24
  %.065 = phi ptr [ %29, %26 ], [ %16, %24 ], [ null, %12 ], [ null, %8 ]
  %.064 = phi ptr [ %28, %26 ], [ null, %24 ], [ null, %12 ], [ null, %8 ]
  tail call fastcc void @header_gen_maybe_generate_type(ptr noundef %1, ptr noundef nonnull %2, ptr noundef %.065)
  tail call fastcc void @header_print_type(ptr noundef %0, ptr noundef %.065)
  %30 = getelementptr inbounds nuw i8, ptr %3, i64 8
  %31 = load ptr, ptr %30, align 8
  %32 = tail call i32 (ptr, ptr, ...) @fprintf(ptr noundef %0, ptr noundef nonnull @.str.82, ptr noundef %31) #6
  %33 = getelementptr inbounds nuw i8, ptr %3, i64 104
  %34 = load ptr, ptr %33, align 8
  %.not75 = icmp eq ptr %34, null
  br i1 %.not75, label %39, label %35

35:                                               ; preds = %.critedge
  %36 = getelementptr inbounds i8, ptr %34, i64 -8
  %37 = load i32, ptr %36, align 4
  %38 = icmp ne i32 %37, 0
  br label %39

39:                                               ; preds = %.critedge, %35
  %.063 = phi i1 [ %38, %35 ], [ false, %.critedge ]
  %40 = icmp ne ptr %.064, null
  %or.cond = or i1 %40, %.063
  br i1 %or.cond, label %43, label %41

41:                                               ; preds = %39
  %42 = tail call i64 @fwrite(ptr nonnull @.str.33, i64 7, i64 1, ptr %0)
  br label %75

43:                                               ; preds = %39
  br i1 %40, label %44, label %47

44:                                               ; preds = %43
  %45 = tail call ptr @type_get_ptr(ptr noundef nonnull %.064) #6
  tail call fastcc void @header_print_type(ptr noundef %0, ptr noundef %45)
  %46 = tail call i64 @fwrite(ptr nonnull @.str.34, i64 11, i64 1, ptr %0)
  %.pre = load ptr, ptr %33, align 8
  br label %47

47:                                               ; preds = %44, %43
  %48 = phi ptr [ %.pre, %44 ], [ %34, %43 ]
  %.not76 = icmp eq ptr %48, null
  br i1 %.not76, label %._crit_edge, label %49

49:                                               ; preds = %47
  %50 = getelementptr inbounds i8, ptr %48, i64 -8
  %51 = load i32, ptr %50, align 4
  %.not80 = icmp eq i32 %51, 0
  br i1 %.not80, label %._crit_edge, label %.lr.ph

.lr.ph:                                           ; preds = %49
  %wide.trip.count87 = zext i32 %51 to i64
  br i1 %40, label %.lr.ph.split.us, label %.lr.ph.split

.lr.ph.split.us:                                  ; preds = %.lr.ph, %61
  %indvars.iv84 = phi i64 [ %indvars.iv.next85, %61 ], [ 0, %.lr.ph ]
  %52 = getelementptr inbounds nuw ptr, ptr %48, i64 %indvars.iv84
  %53 = load ptr, ptr %52, align 8
  %54 = tail call i64 @fwrite(ptr nonnull @.str.35, i64 2, i64 1, ptr %0)
  %55 = getelementptr inbounds nuw i8, ptr %53, i64 72
  %56 = load ptr, ptr %55, align 8
  tail call fastcc void @header_print_type(ptr noundef %0, ptr noundef %56)
  %57 = load ptr, ptr %55, align 8
  tail call fastcc void @header_gen_maybe_generate_type(ptr noundef %1, ptr noundef nonnull %2, ptr noundef %57)
  %58 = load ptr, ptr %53, align 8
  %.not77.us = icmp eq ptr %58, null
  br i1 %.not77.us, label %61, label %59

59:                                               ; preds = %.lr.ph.split.us
  %60 = tail call i32 (ptr, ptr, ...) @fprintf(ptr noundef %0, ptr noundef nonnull @.str.36, ptr noundef nonnull %58) #6
  br label %61

61:                                               ; preds = %59, %.lr.ph.split.us
  %indvars.iv.next85 = add nuw nsw i64 %indvars.iv84, 1
  %exitcond88.not = icmp eq i64 %indvars.iv.next85, %wide.trip.count87
  br i1 %exitcond88.not, label %._crit_edge, label %.lr.ph.split.us, !llvm.loop !30

.lr.ph.split:                                     ; preds = %.lr.ph, %73
  %indvars.iv = phi i64 [ %indvars.iv.next, %73 ], [ 0, %.lr.ph ]
  %62 = getelementptr inbounds nuw ptr, ptr %48, i64 %indvars.iv
  %63 = load ptr, ptr %62, align 8
  %.not81 = icmp eq i64 %indvars.iv, 0
  br i1 %.not81, label %66, label %64

64:                                               ; preds = %.lr.ph.split
  %65 = tail call i64 @fwrite(ptr nonnull @.str.35, i64 2, i64 1, ptr %0)
  br label %66

66:                                               ; preds = %.lr.ph.split, %64
  %67 = getelementptr inbounds nuw i8, ptr %63, i64 72
  %68 = load ptr, ptr %67, align 8
  tail call fastcc void @header_print_type(ptr noundef %0, ptr noundef %68)
  %69 = load ptr, ptr %67, align 8
  tail call fastcc void @header_gen_maybe_generate_type(ptr noundef %1, ptr noundef nonnull %2, ptr noundef %69)
  %70 = load ptr, ptr %63, align 8
  %.not77 = icmp eq ptr %70, null
  br i1 %.not77, label %73, label %71

71:                                               ; preds = %66
  %72 = tail call i32 (ptr, ptr, ...) @fprintf(ptr noundef %0, ptr noundef nonnull @.str.36, ptr noundef nonnull %70) #6
  br label %73

73:                                               ; preds = %66, %71
  %indvars.iv.next = add nuw nsw i64 %indvars.iv, 1
  %exitcond.not = icmp eq i64 %indvars.iv.next, %wide.trip.count87
  br i1 %exitcond.not, label %._crit_edge, label %.lr.ph.split, !llvm.loop !30

._crit_edge:                                      ; preds = %73, %61, %47, %49
  %74 = tail call i64 @fwrite(ptr nonnull @.str.37, i64 3, i64 1, ptr %0)
  br label %75

75:                                               ; preds = %4, %._crit_edge, %41
  ret void
}